; Function Attrs: mustprogress uwtable
define void @_ZN7rocksdb24IteratorQueryTraceRecordC2EONS_13PinnableSliceES2_m(ptr noundef nonnull align 8 dereferenceable(208) %this, ptr noundef nonnull align 8 dereferenceable(89) %lower_bound, ptr noundef nonnull align 8 dereferenceable(89) %upper_bound, i64 noundef %timestamp) unnamed_addr #2 align 2 personality ptr @__gxx_personality_v0 {
entry:
  %timestamp_.i.i = getelementptr inbounds i8, ptr %this, i64 8
  store i64 %timestamp, ptr %timestamp_.i.i, align 8
  store ptr getelementptr inbounds ({ [9 x ptr] }, ptr @_ZTVN7rocksdb24IteratorQueryTraceRecordE, i64 0, i32 0, i64 2), ptr %this, align 8
  %lower_ = getelementptr inbounds i8, ptr %this, i64 16
  tail call void @_ZN7rocksdb13PinnableSliceC1EOS0_(ptr noundef nonnull align 8 dereferenceable(89) %lower_, ptr noundef nonnull align 8 dereferenceable(89) %lower_bound)
  %upper_ = getelementptr inbounds i8, ptr %this, i64 112
  invoke void @_ZN7rocksdb13PinnableSliceC1EOS0_(ptr noundef nonnull align 8 dereferenceable(89) %upper_, ptr noundef nonnull align 8 dereferenceable(89) %upper_bound)
          to label %invoke.cont3 unwind label %lpad2

invoke.cont3:                                     ; preds = %entry
  ret void

lpad2:                                            ; preds = %entry
  %0 = landingpad { ptr, i32 }
          cleanup
  %self_space_.i = getelementptr inbounds i8, ptr %this, i64 64
  tail call void @_ZNSt7__cxx1112basic_stringIcSt11char_traitsIcESaIcEED1Ev(ptr noundef nonnull align 8 dereferenceable(32) %self_space_.i) #17
  %1 = getelementptr inbounds i8, ptr %this, i64 32
  tail call void @_ZN7rocksdb9CleanableD2Ev(ptr noundef nonnull align 8 dereferenceable(32) %1) #17
  resume { ptr, i32 } %0
}